
;CodeVisionAVR C Compiler V3.50 Evaluation
;(C) Copyright 1998-2023 Pavel Haiduc, HP InfoTech S.R.L.
;http://www.hpinfotech.ro

;Build configuration    : Debug
;Chip type              : ATmega8535
;Program type           : Application
;Clock frequency        : 16.000000 MHz
;Memory model           : Small
;Optimize for           : Size
;(s)printf features     : int, width
;(s)scanf features      : int, width
;External RAM size      : 0
;Data Stack size        : 128 byte(s)
;Heap size              : 0 byte(s)
;Promote 'char' to 'int': Yes
;'char' is unsigned     : Yes
;8 bit enums            : Yes
;Global 'const' stored in FLASH: Yes
;Enhanced function parameter passing: Mode 2
;Enhanced core instructions: On
;Automatic register allocation for global variables: On
;Smart register allocation: On

	#define _MODEL_SMALL_

	#pragma AVRPART ADMIN PART_NAME ATmega8535
	#pragma AVRPART MEMORY PROG_FLASH 8192
	#pragma AVRPART MEMORY EEPROM 512
	#pragma AVRPART MEMORY INT_SRAM SIZE 512
	#pragma AVRPART MEMORY INT_SRAM START_ADDR 0x60

	.LISTMAC
	.EQU UDRE=0x5
	.EQU RXC=0x7
	.EQU USR=0xB
	.EQU UDR=0xC
	.EQU SPSR=0xE
	.EQU SPDR=0xF
	.EQU EERE=0x0
	.EQU EEWE=0x1
	.EQU EEMWE=0x2
	.EQU EECR=0x1C
	.EQU EEDR=0x1D
	.EQU EEARL=0x1E
	.EQU EEARH=0x1F
	.EQU WDTCR=0x21
	.EQU MCUCR=0x35
	.EQU SPMCSR=0x37
	.EQU GICR=0x3B
	.EQU SPL=0x3D
	.EQU SPH=0x3E
	.EQU SREG=0x3F

	.DEF R0X0=R0
	.DEF R0X1=R1
	.DEF R0X2=R2
	.DEF R0X3=R3
	.DEF R0X4=R4
	.DEF R0X5=R5
	.DEF R0X6=R6
	.DEF R0X7=R7
	.DEF R0X8=R8
	.DEF R0X9=R9
	.DEF R0XA=R10
	.DEF R0XB=R11
	.DEF R0XC=R12
	.DEF R0XD=R13
	.DEF R0XE=R14
	.DEF R0XF=R15
	.DEF R0X10=R16
	.DEF R0X11=R17
	.DEF R0X12=R18
	.DEF R0X13=R19
	.DEF R0X14=R20
	.DEF R0X15=R21
	.DEF R0X16=R22
	.DEF R0X17=R23
	.DEF R0X18=R24
	.DEF R0X19=R25
	.DEF R0X1A=R26
	.DEF R0X1B=R27
	.DEF R0X1C=R28
	.DEF R0X1D=R29
	.DEF R0X1E=R30
	.DEF R0X1F=R31

	.EQU __SRAM_START=0x0060
	.EQU __SRAM_END=0x025F
	.EQU __DSTACK_SIZE=0x0080
	.EQU __HEAP_SIZE=0x0000
	.EQU __CLEAR_SRAM_SIZE=__SRAM_END-__SRAM_START+1

	.EQU __FLASH_PAGE_SIZE=0x20

	.MACRO __CPD1N
	CPI  R30,LOW(@0)
	LDI  R26,HIGH(@0)
	CPC  R31,R26
	LDI  R26,BYTE3(@0)
	CPC  R22,R26
	LDI  R26,BYTE4(@0)
	CPC  R23,R26
	.ENDM

	.MACRO __CPD2N
	CPI  R26,LOW(@0)
	LDI  R30,HIGH(@0)
	CPC  R27,R30
	LDI  R30,BYTE3(@0)
	CPC  R24,R30
	LDI  R30,BYTE4(@0)
	CPC  R25,R30
	.ENDM

	.MACRO __CPWRR
	CP   R@0,R@2
	CPC  R@1,R@3
	.ENDM

	.MACRO __CPWRN
	CPI  R@0,LOW(@2)
	LDI  R30,HIGH(@2)
	CPC  R@1,R30
	.ENDM

	.MACRO __ADDB1MN
	SUBI R30,LOW(-@0-(@1))
	.ENDM

	.MACRO __ADDB2MN
	SUBI R26,LOW(-@0-(@1))
	.ENDM

	.MACRO __ADDW1MN
	SUBI R30,LOW(-@0-(@1))
	SBCI R31,HIGH(-@0-(@1))
	.ENDM

	.MACRO __ADDW2MN
	SUBI R26,LOW(-@0-(@1))
	SBCI R27,HIGH(-@0-(@1))
	.ENDM

	.MACRO __ADDW1FN
	SUBI R30,LOW(-2*@0-(@1))
	SBCI R31,HIGH(-2*@0-(@1))
	.ENDM

	.MACRO __ADDD1FN
	SUBI R30,LOW(-2*@0-(@1))
	SBCI R31,HIGH(-2*@0-(@1))
	SBCI R22,BYTE3(-2*@0-(@1))
	.ENDM

	.MACRO __ADDD1N
	SUBI R30,LOW(-@0)
	SBCI R31,HIGH(-@0)
	SBCI R22,BYTE3(-@0)
	SBCI R23,BYTE4(-@0)
	.ENDM

	.MACRO __ADDD2N
	SUBI R26,LOW(-@0)
	SBCI R27,HIGH(-@0)
	SBCI R24,BYTE3(-@0)
	SBCI R25,BYTE4(-@0)
	.ENDM

	.MACRO __SUBD1N
	SUBI R30,LOW(@0)
	SBCI R31,HIGH(@0)
	SBCI R22,BYTE3(@0)
	SBCI R23,BYTE4(@0)
	.ENDM

	.MACRO __SUBD2N
	SUBI R26,LOW(@0)
	SBCI R27,HIGH(@0)
	SBCI R24,BYTE3(@0)
	SBCI R25,BYTE4(@0)
	.ENDM

	.MACRO __ANDBMNN
	LDS  R30,@0+(@1)
	ANDI R30,LOW(@2)
	STS  @0+(@1),R30
	.ENDM

	.MACRO __ANDWMNN
	LDS  R30,@0+(@1)
	ANDI R30,LOW(@2)
	STS  @0+(@1),R30
	LDS  R30,@0+(@1)+1
	ANDI R30,HIGH(@2)
	STS  @0+(@1)+1,R30
	.ENDM

	.MACRO __ANDD1N
	ANDI R30,LOW(@0)
	ANDI R31,HIGH(@0)
	ANDI R22,BYTE3(@0)
	ANDI R23,BYTE4(@0)
	.ENDM

	.MACRO __ANDD2N
	ANDI R26,LOW(@0)
	ANDI R27,HIGH(@0)
	ANDI R24,BYTE3(@0)
	ANDI R25,BYTE4(@0)
	.ENDM

	.MACRO __ORBMNN
	LDS  R30,@0+(@1)
	ORI  R30,LOW(@2)
	STS  @0+(@1),R30
	.ENDM

	.MACRO __ORWMNN
	LDS  R30,@0+(@1)
	ORI  R30,LOW(@2)
	STS  @0+(@1),R30
	LDS  R30,@0+(@1)+1
	ORI  R30,HIGH(@2)
	STS  @0+(@1)+1,R30
	.ENDM

	.MACRO __ORD1N
	ORI  R30,LOW(@0)
	ORI  R31,HIGH(@0)
	ORI  R22,BYTE3(@0)
	ORI  R23,BYTE4(@0)
	.ENDM

	.MACRO __ORD2N
	ORI  R26,LOW(@0)
	ORI  R27,HIGH(@0)
	ORI  R24,BYTE3(@0)
	ORI  R25,BYTE4(@0)
	.ENDM

	.MACRO __DELAY_USB
	LDI  R24,LOW(@0)
__DELAY_USB_LOOP:
	DEC  R24
	BRNE __DELAY_USB_LOOP
	.ENDM

	.MACRO __DELAY_USW
	LDI  R24,LOW(@0)
	LDI  R25,HIGH(@0)
__DELAY_USW_LOOP:
	SBIW R24,1
	BRNE __DELAY_USW_LOOP
	.ENDM

	.MACRO __GETW1P
	LD   R30,X+
	LD   R31,X
	SBIW R26,1
	.ENDM

	.MACRO __GETD1S
	LDD  R30,Y+@0
	LDD  R31,Y+@0+1
	LDD  R22,Y+@0+2
	LDD  R23,Y+@0+3
	.ENDM

	.MACRO __GETD2S
	LDD  R26,Y+@0
	LDD  R27,Y+@0+1
	LDD  R24,Y+@0+2
	LDD  R25,Y+@0+3
	.ENDM

	.MACRO __GETD1P_INC
	LD   R30,X+
	LD   R31,X+
	LD   R22,X+
	LD   R23,X+
	.ENDM

	.MACRO __GETD1P_DEC
	LD   R23,-X
	LD   R22,-X
	LD   R31,-X
	LD   R30,-X
	.ENDM

	.MACRO __PUTDP1
	ST   X+,R30
	ST   X+,R31
	ST   X+,R22
	ST   X,R23
	.ENDM

	.MACRO __PUTDP1_DEC
	ST   -X,R23
	ST   -X,R22
	ST   -X,R31
	ST   -X,R30
	.ENDM

	.MACRO __PUTD1S
	STD  Y+@0,R30
	STD  Y+@0+1,R31
	STD  Y+@0+2,R22
	STD  Y+@0+3,R23
	.ENDM

	.MACRO __PUTD2S
	STD  Y+@0,R26
	STD  Y+@0+1,R27
	STD  Y+@0+2,R24
	STD  Y+@0+3,R25
	.ENDM

	.MACRO __PUTDZ2
	STD  Z+@0,R26
	STD  Z+@0+1,R27
	STD  Z+@0+2,R24
	STD  Z+@0+3,R25
	.ENDM

	.MACRO __CLRD1S
	STD  Y+@0,R30
	STD  Y+@0+1,R30
	STD  Y+@0+2,R30
	STD  Y+@0+3,R30
	.ENDM

	.MACRO __CPD10
	SBIW R30,0
	SBCI R22,0
	SBCI R23,0
	.ENDM

	.MACRO __CPD20
	SBIW R26,0
	SBCI R24,0
	SBCI R25,0
	.ENDM

	.MACRO __ADDD12
	ADD  R30,R26
	ADC  R31,R27
	ADC  R22,R24
	ADC  R23,R25
	.ENDM

	.MACRO __ADDD21
	ADD  R26,R30
	ADC  R27,R31
	ADC  R24,R22
	ADC  R25,R23
	.ENDM

	.MACRO __SUBD12
	SUB  R30,R26
	SBC  R31,R27
	SBC  R22,R24
	SBC  R23,R25
	.ENDM

	.MACRO __SUBD21
	SUB  R26,R30
	SBC  R27,R31
	SBC  R24,R22
	SBC  R25,R23
	.ENDM

	.MACRO __ANDD12
	AND  R30,R26
	AND  R31,R27
	AND  R22,R24
	AND  R23,R25
	.ENDM

	.MACRO __ORD12
	OR   R30,R26
	OR   R31,R27
	OR   R22,R24
	OR   R23,R25
	.ENDM

	.MACRO __XORD12
	EOR  R30,R26
	EOR  R31,R27
	EOR  R22,R24
	EOR  R23,R25
	.ENDM

	.MACRO __XORD21
	EOR  R26,R30
	EOR  R27,R31
	EOR  R24,R22
	EOR  R25,R23
	.ENDM

	.MACRO __COMD1
	COM  R30
	COM  R31
	COM  R22
	COM  R23
	.ENDM

	.MACRO __MULD2_2
	LSL  R26
	ROL  R27
	ROL  R24
	ROL  R25
	.ENDM

	.MACRO __LSRD1
	LSR  R23
	ROR  R22
	ROR  R31
	ROR  R30
	.ENDM

	.MACRO __LSLD1
	LSL  R30
	ROL  R31
	ROL  R22
	ROL  R23
	.ENDM

	.MACRO __ASRB4
	ASR  R30
	ASR  R30
	ASR  R30
	ASR  R30
	.ENDM

	.MACRO __ASRW8
	MOV  R30,R31
	CLR  R31
	SBRC R30,7
	SER  R31
	.ENDM

	.MACRO __LSRD16
	MOV  R30,R22
	MOV  R31,R23
	LDI  R22,0
	LDI  R23,0
	.ENDM

	.MACRO __LSLD16
	MOV  R22,R30
	MOV  R23,R31
	LDI  R30,0
	LDI  R31,0
	.ENDM

	.MACRO __CWD1
	MOV  R22,R31
	ADD  R22,R22
	SBC  R22,R22
	MOV  R23,R22
	.ENDM

	.MACRO __CWD2
	MOV  R24,R27
	ADD  R24,R24
	SBC  R24,R24
	MOV  R25,R24
	.ENDM

	.MACRO __SETMSD1
	SER  R31
	SER  R22
	SER  R23
	.ENDM

	.MACRO __ADDW1R15
	CLR  R0
	ADD  R30,R15
	ADC  R31,R0
	.ENDM

	.MACRO __ADDW2R15
	CLR  R0
	ADD  R26,R15
	ADC  R27,R0
	.ENDM

	.MACRO __EQB12
	CP   R30,R26
	LDI  R30,1
	BREQ PC+2
	CLR  R30
	.ENDM

	.MACRO __NEB12
	CP   R30,R26
	LDI  R30,1
	BRNE PC+2
	CLR  R30
	.ENDM

	.MACRO __LEB12
	CP   R30,R26
	LDI  R30,1
	BRGE PC+2
	CLR  R30
	.ENDM

	.MACRO __GEB12
	CP   R26,R30
	LDI  R30,1
	BRGE PC+2
	CLR  R30
	.ENDM

	.MACRO __LTB12
	CP   R26,R30
	LDI  R30,1
	BRLT PC+2
	CLR  R30
	.ENDM

	.MACRO __GTB12
	CP   R30,R26
	LDI  R30,1
	BRLT PC+2
	CLR  R30
	.ENDM

	.MACRO __LEB12U
	CP   R30,R26
	LDI  R30,1
	BRSH PC+2
	CLR  R30
	.ENDM

	.MACRO __GEB12U
	CP   R26,R30
	LDI  R30,1
	BRSH PC+2
	CLR  R30
	.ENDM

	.MACRO __LTB12U
	CP   R26,R30
	LDI  R30,1
	BRLO PC+2
	CLR  R30
	.ENDM

	.MACRO __GTB12U
	CP   R30,R26
	LDI  R30,1
	BRLO PC+2
	CLR  R30
	.ENDM

	.MACRO __CPW01
	CLR  R0
	CP   R0,R30
	CPC  R0,R31
	.ENDM

	.MACRO __CPW02
	CLR  R0
	CP   R0,R26
	CPC  R0,R27
	.ENDM

	.MACRO __CPD12
	CP   R30,R26
	CPC  R31,R27
	CPC  R22,R24
	CPC  R23,R25
	.ENDM

	.MACRO __CPD21
	CP   R26,R30
	CPC  R27,R31
	CPC  R24,R22
	CPC  R25,R23
	.ENDM

	.MACRO __BSTB1
	CLT
	TST  R30
	BREQ PC+2
	SET
	.ENDM

	.MACRO __LNEGB1
	TST  R30
	LDI  R30,1
	BREQ PC+2
	CLR  R30
	.ENDM

	.MACRO __LNEGW1
	OR   R30,R31
	LDI  R30,1
	BREQ PC+2
	LDI  R30,0
	.ENDM

	.MACRO __POINTB1MN
	LDI  R30,LOW(@0+(@1))
	.ENDM

	.MACRO __POINTW1MN
	LDI  R30,LOW(@0+(@1))
	LDI  R31,HIGH(@0+(@1))
	.ENDM

	.MACRO __POINTD1M
	LDI  R30,LOW(@0)
	LDI  R31,HIGH(@0)
	LDI  R22,BYTE3(@0)
	LDI  R23,BYTE4(@0)
	.ENDM

	.MACRO __POINTW1FN
	LDI  R30,LOW(2*@0+(@1))
	LDI  R31,HIGH(2*@0+(@1))
	.ENDM

	.MACRO __POINTD1FN
	LDI  R30,LOW(2*@0+(@1))
	LDI  R31,HIGH(2*@0+(@1))
	LDI  R22,BYTE3(2*@0+(@1))
	LDI  R23,BYTE4(2*@0+(@1))
	.ENDM

	.MACRO __POINTB2MN
	LDI  R26,LOW(@0+(@1))
	.ENDM

	.MACRO __POINTW2MN
	LDI  R26,LOW(@0+(@1))
	LDI  R27,HIGH(@0+(@1))
	.ENDM

	.MACRO __POINTD2M
	LDI  R26,LOW(@0)
	LDI  R27,HIGH(@0)
	LDI  R24,BYTE3(@0)
	LDI  R25,BYTE4(@0)
	.ENDM

	.MACRO __POINTW2FN
	LDI  R26,LOW(2*@0+(@1))
	LDI  R27,HIGH(2*@0+(@1))
	.ENDM

	.MACRO __POINTD2FN
	LDI  R26,LOW(2*@0+(@1))
	LDI  R27,HIGH(2*@0+(@1))
	LDI  R24,BYTE3(2*@0+(@1))
	LDI  R25,BYTE4(2*@0+(@1))
	.ENDM

	.MACRO __POINTBRM
	LDI  R@0,LOW(@1)
	.ENDM

	.MACRO __POINTWRM
	LDI  R@0,LOW(@2)
	LDI  R@1,HIGH(@2)
	.ENDM

	.MACRO __POINTBRMN
	LDI  R@0,LOW(@1+(@2))
	.ENDM

	.MACRO __POINTWRMN
	LDI  R@0,LOW(@2+(@3))
	LDI  R@1,HIGH(@2+(@3))
	.ENDM

	.MACRO __POINTWRFN
	LDI  R@0,LOW(@2*2+(@3))
	LDI  R@1,HIGH(@2*2+(@3))
	.ENDM

	.MACRO __GETD1N
	LDI  R30,LOW(@0)
	LDI  R31,HIGH(@0)
	LDI  R22,BYTE3(@0)
	LDI  R23,BYTE4(@0)
	.ENDM

	.MACRO __GETD2N
	LDI  R26,LOW(@0)
	LDI  R27,HIGH(@0)
	LDI  R24,BYTE3(@0)
	LDI  R25,BYTE4(@0)
	.ENDM

	.MACRO __GETB1MN
	LDS  R30,@0+(@1)
	.ENDM

	.MACRO __GETB1HMN
	LDS  R31,@0+(@1)
	.ENDM

	.MACRO __GETW1MN
	LDS  R30,@0+(@1)
	LDS  R31,@0+(@1)+1
	.ENDM

	.MACRO __GETD1MN
	LDS  R30,@0+(@1)
	LDS  R31,@0+(@1)+1
	LDS  R22,@0+(@1)+2
	LDS  R23,@0+(@1)+3
	.ENDM

	.MACRO __GETBRMN
	LDS  R@0,@1+(@2)
	.ENDM

	.MACRO __GETWRMN
	LDS  R@0,@2+(@3)
	LDS  R@1,@2+(@3)+1
	.ENDM

	.MACRO __GETWRZ
	LDD  R@0,Z+@2
	LDD  R@1,Z+@2+1
	.ENDM

	.MACRO __GETD2Z
	LDD  R26,Z+@0
	LDD  R27,Z+@0+1
	LDD  R24,Z+@0+2
	LDD  R25,Z+@0+3
	.ENDM

	.MACRO __GETB2MN
	LDS  R26,@0+(@1)
	.ENDM

	.MACRO __GETW2MN
	LDS  R26,@0+(@1)
	LDS  R27,@0+(@1)+1
	.ENDM

	.MACRO __GETD2MN
	LDS  R26,@0+(@1)
	LDS  R27,@0+(@1)+1
	LDS  R24,@0+(@1)+2
	LDS  R25,@0+(@1)+3
	.ENDM

	.MACRO __PUTB1MN
	STS  @0+(@1),R30
	.ENDM

	.MACRO __PUTW1MN
	STS  @0+(@1),R30
	STS  @0+(@1)+1,R31
	.ENDM

	.MACRO __PUTD1MN
	STS  @0+(@1),R30
	STS  @0+(@1)+1,R31
	STS  @0+(@1)+2,R22
	STS  @0+(@1)+3,R23
	.ENDM

	.MACRO __PUTB1EN
	LDI  R26,LOW(@0+(@1))
	LDI  R27,HIGH(@0+(@1))
	RCALL __EEPROMWRB
	.ENDM

	.MACRO __PUTW1EN
	LDI  R26,LOW(@0+(@1))
	LDI  R27,HIGH(@0+(@1))
	RCALL __EEPROMWRW
	.ENDM

	.MACRO __PUTD1EN
	LDI  R26,LOW(@0+(@1))
	LDI  R27,HIGH(@0+(@1))
	RCALL __EEPROMWRD
	.ENDM

	.MACRO __PUTBR0MN
	STS  @0+(@1),R0
	.ENDM

	.MACRO __PUTBMRN
	STS  @0+(@1),R@2
	.ENDM

	.MACRO __PUTWMRN
	STS  @0+(@1),R@2
	STS  @0+(@1)+1,R@3
	.ENDM

	.MACRO __PUTBZR
	STD  Z+@1,R@0
	.ENDM

	.MACRO __PUTWZR
	STD  Z+@2,R@0
	STD  Z+@2+1,R@1
	.ENDM

	.MACRO __GETW1R
	MOV  R30,R@0
	MOV  R31,R@1
	.ENDM

	.MACRO __GETW2R
	MOV  R26,R@0
	MOV  R27,R@1
	.ENDM

	.MACRO __GETWRN
	LDI  R@0,LOW(@2)
	LDI  R@1,HIGH(@2)
	.ENDM

	.MACRO __PUTW1R
	MOV  R@0,R30
	MOV  R@1,R31
	.ENDM

	.MACRO __PUTW2R
	MOV  R@0,R26
	MOV  R@1,R27
	.ENDM

	.MACRO __ADDWRN
	SUBI R@0,LOW(-@2)
	SBCI R@1,HIGH(-@2)
	.ENDM

	.MACRO __ADDWRR
	ADD  R@0,R@2
	ADC  R@1,R@3
	.ENDM

	.MACRO __SUBWRN
	SUBI R@0,LOW(@2)
	SBCI R@1,HIGH(@2)
	.ENDM

	.MACRO __SUBWRR
	SUB  R@0,R@2
	SBC  R@1,R@3
	.ENDM

	.MACRO __ANDWRN
	ANDI R@0,LOW(@2)
	ANDI R@1,HIGH(@2)
	.ENDM

	.MACRO __ANDWRR
	AND  R@0,R@2
	AND  R@1,R@3
	.ENDM

	.MACRO __ORWRN
	ORI  R@0,LOW(@2)
	ORI  R@1,HIGH(@2)
	.ENDM

	.MACRO __ORWRR
	OR   R@0,R@2
	OR   R@1,R@3
	.ENDM

	.MACRO __EORWRR
	EOR  R@0,R@2
	EOR  R@1,R@3
	.ENDM

	.MACRO __GETWRS
	LDD  R@0,Y+@2
	LDD  R@1,Y+@2+1
	.ENDM

	.MACRO __PUTBSR
	STD  Y+@1,R@0
	.ENDM

	.MACRO __PUTWSR
	STD  Y+@2,R@0
	STD  Y+@2+1,R@1
	.ENDM

	.MACRO __MOVEWRR
	MOV  R@0,R@2
	MOV  R@1,R@3
	.ENDM

	.MACRO __INWR
	IN   R@0,@2
	IN   R@1,@2+1
	.ENDM

	.MACRO __OUTWR
	OUT  @2+1,R@1
	OUT  @2,R@0
	.ENDM

	.MACRO __CALL1MN
	LDS  R30,@0+(@1)
	LDS  R31,@0+(@1)+1
	ICALL
	.ENDM

	.MACRO __CALL1FN
	LDI  R30,LOW(2*@0+(@1))
	LDI  R31,HIGH(2*@0+(@1))
	RCALL __GETW1PF
	ICALL
	.ENDM

	.MACRO __CALL2EN
	PUSH R26
	PUSH R27
	LDI  R26,LOW(@0+(@1))
	LDI  R27,HIGH(@0+(@1))
	RCALL __EEPROMRDW
	POP  R27
	POP  R26
	ICALL
	.ENDM

	.MACRO __CALL2EX
	SUBI R26,LOW(-@0)
	SBCI R27,HIGH(-@0)
	RCALL __EEPROMRDD
	ICALL
	.ENDM

	.MACRO __GETW1STACK
	IN   R30,SPL
	IN   R31,SPH
	ADIW R30,@0+1
	LD   R0,Z+
	LD   R31,Z
	MOV  R30,R0
	.ENDM

	.MACRO __GETD1STACK
	IN   R30,SPL
	IN   R31,SPH
	ADIW R30,@0+1
	LD   R0,Z+
	LD   R1,Z+
	LD   R22,Z
	MOVW R30,R0
	.ENDM

	.MACRO __NBST
	BST  R@0,@1
	IN   R30,SREG
	LDI  R31,0x40
	EOR  R30,R31
	OUT  SREG,R30
	.ENDM


	.MACRO __PUTB1SN
	LDD  R26,Y+@0
	LDD  R27,Y+@0+1
	SUBI R26,LOW(-@1)
	SBCI R27,HIGH(-@1)
	ST   X,R30
	.ENDM

	.MACRO __PUTW1SN
	LDD  R26,Y+@0
	LDD  R27,Y+@0+1
	SUBI R26,LOW(-@1)
	SBCI R27,HIGH(-@1)
	ST   X+,R30
	ST   X,R31
	.ENDM

	.MACRO __PUTD1SN
	LDD  R26,Y+@0
	LDD  R27,Y+@0+1
	SUBI R26,LOW(-@1)
	SBCI R27,HIGH(-@1)
	ST   X+,R30
	ST   X+,R31
	ST   X+,R22
	ST   X,R23
	.ENDM

	.MACRO __PUTB1SNS
	LDD  R26,Y+@0
	LDD  R27,Y+@0+1
	ADIW R26,@1
	ST   X,R30
	.ENDM

	.MACRO __PUTW1SNS
	LDD  R26,Y+@0
	LDD  R27,Y+@0+1
	ADIW R26,@1
	ST   X+,R30
	ST   X,R31
	.ENDM

	.MACRO __PUTD1SNS
	LDD  R26,Y+@0
	LDD  R27,Y+@0+1
	ADIW R26,@1
	ST   X+,R30
	ST   X+,R31
	ST   X+,R22
	ST   X,R23
	.ENDM

	.MACRO __PUTB1PMN
	LDS  R26,@0
	LDS  R27,@0+1
	SUBI R26,LOW(-@1)
	SBCI R27,HIGH(-@1)
	ST   X,R30
	.ENDM

	.MACRO __PUTW1PMN
	LDS  R26,@0
	LDS  R27,@0+1
	SUBI R26,LOW(-@1)
	SBCI R27,HIGH(-@1)
	ST   X+,R30
	ST   X,R31
	.ENDM

	.MACRO __PUTD1PMN
	LDS  R26,@0
	LDS  R27,@0+1
	SUBI R26,LOW(-@1)
	SBCI R27,HIGH(-@1)
	ST   X+,R30
	ST   X+,R31
	ST   X+,R22
	ST   X,R23
	.ENDM

	.MACRO __PUTB1PMNS
	LDS  R26,@0
	LDS  R27,@0+1
	ADIW R26,@1
	ST   X,R30
	.ENDM

	.MACRO __PUTW1PMNS
	LDS  R26,@0
	LDS  R27,@0+1
	ADIW R26,@1
	ST   X+,R30
	ST   X,R31
	.ENDM

	.MACRO __PUTD1PMNS
	LDS  R26,@0
	LDS  R27,@0+1
	ADIW R26,@1
	ST   X+,R30
	ST   X+,R31
	ST   X+,R22
	ST   X,R23
	.ENDM

	.MACRO __PUTB1RN
	MOVW R26,R@0
	SUBI R26,LOW(-@1)
	SBCI R27,HIGH(-@1)
	ST   X,R30
	.ENDM

	.MACRO __PUTW1RN
	MOVW R26,R@0
	SUBI R26,LOW(-@1)
	SBCI R27,HIGH(-@1)
	ST   X+,R30
	ST   X,R31
	.ENDM

	.MACRO __PUTD1RN
	MOVW R26,R@0
	SUBI R26,LOW(-@1)
	SBCI R27,HIGH(-@1)
	ST   X+,R30
	ST   X+,R31
	ST   X+,R22
	ST   X,R23
	.ENDM

	.MACRO __PUTB1RNS
	MOVW R26,R@0
	ADIW R26,@1
	ST   X,R30
	.ENDM

	.MACRO __PUTW1RNS
	MOVW R26,R@0
	ADIW R26,@1
	ST   X+,R30
	ST   X,R31
	.ENDM

	.MACRO __PUTD1RNS
	MOVW R26,R@0
	ADIW R26,@1
	ST   X+,R30
	ST   X+,R31
	ST   X+,R22
	ST   X,R23
	.ENDM

	.MACRO __PUTB1RON
	MOV  R26,R@0
	MOV  R27,R@1
	SUBI R26,LOW(-@2)
	SBCI R27,HIGH(-@2)
	ST   X,R30
	.ENDM

	.MACRO __PUTW1RON
	MOV  R26,R@0
	MOV  R27,R@1
	SUBI R26,LOW(-@2)
	SBCI R27,HIGH(-@2)
	ST   X+,R30
	ST   X,R31
	.ENDM

	.MACRO __PUTD1RON
	MOV  R26,R@0
	MOV  R27,R@1
	SUBI R26,LOW(-@2)
	SBCI R27,HIGH(-@2)
	ST   X+,R30
	ST   X+,R31
	ST   X+,R22
	ST   X,R23
	.ENDM

	.MACRO __PUTB1RONS
	MOV  R26,R@0
	MOV  R27,R@1
	ADIW R26,@2
	ST   X,R30
	.ENDM

	.MACRO __PUTW1RONS
	MOV  R26,R@0
	MOV  R27,R@1
	ADIW R26,@2
	ST   X+,R30
	ST   X,R31
	.ENDM

	.MACRO __PUTD1RONS
	MOV  R26,R@0
	MOV  R27,R@1
	ADIW R26,@2
	ST   X+,R30
	ST   X+,R31
	ST   X+,R22
	ST   X,R23
	.ENDM


	.MACRO __GETB1SX
	MOVW R30,R28
	SUBI R30,LOW(-@0)
	SBCI R31,HIGH(-@0)
	LD   R30,Z
	.ENDM

	.MACRO __GETB1HSX
	MOVW R30,R28
	SUBI R30,LOW(-@0)
	SBCI R31,HIGH(-@0)
	LD   R31,Z
	.ENDM

	.MACRO __GETW1SX
	MOVW R30,R28
	SUBI R30,LOW(-@0)
	SBCI R31,HIGH(-@0)
	RCALL __GETW1Z
	.ENDM

	.MACRO __GETD1SX
	MOVW R30,R28
	SUBI R30,LOW(-@0)
	SBCI R31,HIGH(-@0)
	RCALL __GETD1Z
	.ENDM

	.MACRO __GETB2SX
	MOVW R26,R28
	SUBI R26,LOW(-@0)
	SBCI R27,HIGH(-@0)
	LD   R26,X
	.ENDM

	.MACRO __GETW2SX
	MOVW R26,R28
	SUBI R26,LOW(-@0)
	SBCI R27,HIGH(-@0)
	RCALL __GETW2X
	.ENDM

	.MACRO __GETD2SX
	MOVW R26,R28
	SUBI R26,LOW(-@0)
	SBCI R27,HIGH(-@0)
	RCALL __GETD2X
	.ENDM

	.MACRO __GETBRSX
	MOVW R30,R28
	SUBI R30,LOW(-@1)
	SBCI R31,HIGH(-@1)
	LD   R@0,Z
	.ENDM

	.MACRO __GETWRSX
	MOVW R30,R28
	SUBI R30,LOW(-@2)
	SBCI R31,HIGH(-@2)
	LD   R@0,Z+
	LD   R@1,Z
	.ENDM

	.MACRO __GETBRSX2
	MOVW R26,R28
	SUBI R26,LOW(-@1)
	SBCI R27,HIGH(-@1)
	LD   R@0,X
	.ENDM

	.MACRO __GETWRSX2
	MOVW R26,R28
	SUBI R26,LOW(-@2)
	SBCI R27,HIGH(-@2)
	LD   R@0,X+
	LD   R@1,X
	.ENDM

	.MACRO __LSLW8SX
	MOVW R30,R28
	SUBI R30,LOW(-@0)
	SBCI R31,HIGH(-@0)
	LD   R31,Z
	CLR  R30
	.ENDM

	.MACRO __PUTB1SX
	MOVW R26,R28
	SUBI R26,LOW(-@0)
	SBCI R27,HIGH(-@0)
	ST   X,R30
	.ENDM

	.MACRO __PUTW1SX
	MOVW R26,R28
	SUBI R26,LOW(-@0)
	SBCI R27,HIGH(-@0)
	ST   X+,R30
	ST   X,R31
	.ENDM

	.MACRO __PUTD1SX
	MOVW R26,R28
	SUBI R26,LOW(-@0)
	SBCI R27,HIGH(-@0)
	ST   X+,R30
	ST   X+,R31
	ST   X+,R22
	ST   X,R23
	.ENDM

	.MACRO __CLRW1SX
	MOVW R26,R28
	SUBI R26,LOW(-@0)
	SBCI R27,HIGH(-@0)
	ST   X+,R30
	ST   X,R30
	.ENDM

	.MACRO __CLRD1SX
	MOVW R26,R28
	SUBI R26,LOW(-@0)
	SBCI R27,HIGH(-@0)
	ST   X+,R30
	ST   X+,R30
	ST   X+,R30
	ST   X,R30
	.ENDM

	.MACRO __PUTB2SX
	MOVW R30,R28
	SUBI R30,LOW(-@0)
	SBCI R31,HIGH(-@0)
	ST   Z,R26
	.ENDM

	.MACRO __PUTW2SX
	MOVW R30,R28
	SUBI R30,LOW(-@0)
	SBCI R31,HIGH(-@0)
	ST   Z+,R26
	ST   Z,R27
	.ENDM

	.MACRO __PUTD2SX
	MOVW R30,R28
	SUBI R30,LOW(-@0)
	SBCI R31,HIGH(-@0)
	ST   Z+,R26
	ST   Z+,R27
	ST   Z+,R24
	ST   Z,R25
	.ENDM

	.MACRO __PUTBSRX
	MOVW R30,R28
	SUBI R30,LOW(-@1)
	SBCI R31,HIGH(-@1)
	ST   Z,R@0
	.ENDM

	.MACRO __PUTWSRX
	MOVW R30,R28
	SUBI R30,LOW(-@2)
	SBCI R31,HIGH(-@2)
	ST   Z+,R@0
	ST   Z,R@1
	.ENDM

	.MACRO __PUTB1SNX
	MOVW R26,R28
	SUBI R26,LOW(-@0)
	SBCI R27,HIGH(-@0)
	LD   R0,X+
	LD   R27,X
	MOV  R26,R0
	SUBI R26,LOW(-@1)
	SBCI R27,HIGH(-@1)
	ST   X,R30
	.ENDM

	.MACRO __PUTW1SNX
	MOVW R26,R28
	SUBI R26,LOW(-@0)
	SBCI R27,HIGH(-@0)
	LD   R0,X+
	LD   R27,X
	MOV  R26,R0
	SUBI R26,LOW(-@1)
	SBCI R27,HIGH(-@1)
	ST   X+,R30
	ST   X,R31
	.ENDM

	.MACRO __PUTD1SNX
	MOVW R26,R28
	SUBI R26,LOW(-@0)
	SBCI R27,HIGH(-@0)
	LD   R0,X+
	LD   R27,X
	MOV  R26,R0
	SUBI R26,LOW(-@1)
	SBCI R27,HIGH(-@1)
	ST   X+,R30
	ST   X+,R31
	ST   X+,R22
	ST   X,R23
	.ENDM

	.MACRO __MULBRR
	MULS R@0,R@1
	MOVW R30,R0
	.ENDM

	.MACRO __MULBRRU
	MUL  R@0,R@1
	MOVW R30,R0
	.ENDM

	.MACRO __MULBRR0
	MULS R@0,R@1
	.ENDM

	.MACRO __MULBRRU0
	MUL  R@0,R@1
	.ENDM

	.MACRO __MULBNWRU
	LDI  R26,@2
	MUL  R26,R@0
	MOVW R30,R0
	MUL  R26,R@1
	ADD  R31,R0
	.ENDM

;NAME DEFINITIONS FOR GLOBAL VARIABLES ALLOCATED TO REGISTERS
	.DEF _count=R4
	.DEF _count_msb=R5
	.DEF _ticks=R6
	.DEF _ticks_msb=R7
	.DEF __lcd_x=R9
	.DEF __lcd_y=R8
	.DEF __lcd_maxx=R11

	.CSEG
	.ORG 0x00

;START OF CODE MARKER
__START_OF_CODE:

;INTERRUPT VECTORS
	RJMP __RESET
	RJMP 0x00
	RJMP 0x00
	RJMP 0x00
	RJMP 0x00
	RJMP 0x00
	RJMP 0x00
	RJMP 0x00
	RJMP 0x00
	RJMP 0x00
	RJMP 0x00
	RJMP 0x00
	RJMP 0x00
	RJMP 0x00
	RJMP _adc_isr
	RJMP 0x00
	RJMP 0x00
	RJMP 0x00
	RJMP 0x00
	RJMP _timer0_comp_isr
	RJMP 0x00

_tbl10_G101:
	.DB  0x10,0x27,0xE8,0x3,0x64,0x0,0xA,0x0
	.DB  0x1,0x0
_tbl16_G101:
	.DB  0x0,0x10,0x0,0x1,0x10,0x0,0x1,0x0

;GLOBAL REGISTER VARIABLES INITIALIZATION
__REG_VARS:
	.DB  0x0,0x0,0x0,0x0

_0x0:
	.DB  0x48,0x65,0x6C,0x6C,0x6F,0x0
_0x2000003:
	.DB  0x80,0xC0

__GLOBAL_INI_TBL:
	.DW  0x04
	.DW  0x04
	.DW  __REG_VARS*2

	.DW  0x06
	.DW  _0x6
	.DW  _0x0*2

	.DW  0x02
	.DW  __base_y_G100
	.DW  _0x2000003*2

_0xFFFFFFFF:
	.DW  0

#define __GLOBAL_INI_TBL_PRESENT 1

__RESET:
	CLI
	CLR  R30
	OUT  EECR,R30

;INTERRUPT VECTORS ARE PLACED
;AT THE START OF FLASH
	LDI  R31,1
	OUT  GICR,R31
	OUT  GICR,R30
	OUT  MCUCR,R30

;CLEAR R2-R14
	LDI  R24,(14-2)+1
	LDI  R26,2
	CLR  R27
__CLEAR_REG:
	ST   X+,R30
	DEC  R24
	BRNE __CLEAR_REG

;CLEAR SRAM
	LDI  R24,LOW(__CLEAR_SRAM_SIZE)
	LDI  R25,HIGH(__CLEAR_SRAM_SIZE)
	LDI  R26,__SRAM_START
__CLEAR_SRAM:
	ST   X+,R30
	SBIW R24,1
	BRNE __CLEAR_SRAM

;GLOBAL VARIABLES INITIALIZATION
	LDI  R30,LOW(__GLOBAL_INI_TBL*2)
	LDI  R31,HIGH(__GLOBAL_INI_TBL*2)
__GLOBAL_INI_NEXT:
	LPM  R24,Z+
	LPM  R25,Z+
	SBIW R24,0
	BREQ __GLOBAL_INI_END
	LPM  R26,Z+
	LPM  R27,Z+
	LPM  R0,Z+
	LPM  R1,Z+
	MOVW R22,R30
	MOVW R30,R0
__GLOBAL_INI_LOOP:
	LPM  R0,Z+
	ST   X+,R0
	SBIW R24,1
	BRNE __GLOBAL_INI_LOOP
	MOVW R30,R22
	RJMP __GLOBAL_INI_NEXT
__GLOBAL_INI_END:

;HARDWARE STACK POINTER INITIALIZATION
	LDI  R30,LOW(__SRAM_END-__HEAP_SIZE)
	OUT  SPL,R30
	LDI  R30,HIGH(__SRAM_END-__HEAP_SIZE)
	OUT  SPH,R30

;DATA STACK POINTER INITIALIZATION
	LDI  R28,LOW(__SRAM_START+__DSTACK_SIZE)
	LDI  R29,HIGH(__SRAM_START+__DSTACK_SIZE)

	RJMP _main

	.ESEG
	.ORG 0x00

	.DSEG
	.ORG 0xE0

	.CSEG
	#ifndef __SLEEP_DEFINED__
	#define __SLEEP_DEFINED__
	.EQU __se_bit=0x40
	.EQU __sm_mask=0xB0
	.EQU __sm_powerdown=0x20
	.EQU __sm_powersave=0x30
	.EQU __sm_standby=0xA0
	.EQU __sm_ext_standby=0xB0
	.EQU __sm_adc_noise_red=0x10
	.SET power_ctrl_reg=mcucr
	#endif
;interrupt [20] void timer0_comp_isr(void)
; 0000 0023 {

	.CSEG
_timer0_comp_isr:
; .FSTART _timer0_comp_isr
	ST   -Y,R30
	ST   -Y,R31
	IN   R30,SREG
	ST   -Y,R30
; 0000 0024 // Place your code here
; 0000 0025 count++;
	MOVW R30,R4
	ADIW R30,1
	MOVW R4,R30
; 0000 0026 if (count == 3) {
	LDI  R30,LOW(3)
	LDI  R31,HIGH(3)
	CP   R30,R4
	CPC  R31,R5
	BRNE _0x3
; 0000 0027 count = 0;
	CLR  R4
	CLR  R5
; 0000 0028 ticks++;
	MOVW R30,R6
	ADIW R30,1
	MOVW R6,R30
; 0000 0029 if (ticks == 50) {ticks = 0;}
	LDI  R30,LOW(50)
	LDI  R31,HIGH(50)
	CP   R30,R6
	CPC  R31,R7
	BRNE _0x4
	CLR  R6
	CLR  R7
; 0000 002A }
_0x4:
; 0000 002B }
_0x3:
	LD   R30,Y+
	OUT  SREG,R30
	LD   R31,Y+
	LD   R30,Y+
	RETI
; .FEND
;interrupt [15] void adc_isr(void)
; 0000 0036 {
_adc_isr:
; .FSTART _adc_isr
	ST   -Y,R24
	ST   -Y,R26
	ST   -Y,R27
	ST   -Y,R30
	ST   -Y,R31
	IN   R30,SREG
	ST   -Y,R30
; 0000 0037 static unsigned char input_index=0;
; 0000 0038 // Read the AD conversion result
; 0000 0039 adc_data[input_index]=ADCW;
	LDS  R30,_input_index_S0000001000
	LDI  R26,LOW(_adc_data)
	LDI  R27,HIGH(_adc_data)
	LDI  R31,0
	LSL  R30
	ROL  R31
	ADD  R26,R30
	ADC  R27,R31
	IN   R30,0x4
	IN   R31,0x4+1
	ST   X+,R30
	ST   X,R31
; 0000 003A // Select next ADC input
; 0000 003B if (++input_index > (LAST_ADC_INPUT-FIRST_ADC_INPUT))
	LDS  R26,_input_index_S0000001000
	SUBI R26,-LOW(1)
	STS  _input_index_S0000001000,R26
	CPI  R26,LOW(0x4)
	BRLO _0x5
; 0000 003C input_index=0;
	LDI  R30,LOW(0)
	STS  _input_index_S0000001000,R30
; 0000 003D ADMUX=(FIRST_ADC_INPUT | ADC_VREF_TYPE)+input_index;
_0x5:
	LDS  R30,_input_index_S0000001000
	SUBI R30,-LOW(64)
	OUT  0x7,R30
; 0000 003E // Delay needed for the stabilization of the ADC input voltage
; 0000 003F delay_us(10);
	__DELAY_USB 53
; 0000 0040 // Start the AD conversion
; 0000 0041 ADCSRA|=(1<<ADSC);
	SBI  0x6,6
; 0000 0042 }
	LD   R30,Y+
	OUT  SREG,R30
	LD   R31,Y+
	LD   R30,Y+
	LD   R27,Y+
	LD   R26,Y+
	LD   R24,Y+
	RETI
; .FEND
;void main(void)
; 0000 0049 {
_main:
; .FSTART _main
; 0000 004A // Declare your local variables here
; 0000 004B 
; 0000 004C // Input/Output Ports initialization
; 0000 004D // Port A initialization
; 0000 004E // Function: Bit7=In Bit6=In Bit5=In Bit4=In Bit3=In Bit2=In Bit1=In Bit0=In
; 0000 004F DDRA=(0<<DDA7) | (0<<DDA6) | (0<<DDA5) | (0<<DDA4) | (0<<DDA3) | (0<<DDA2) | (0<<DDA1) | (0<<DDA0);
	LDI  R30,LOW(0)
	OUT  0x1A,R30
; 0000 0050 // State: Bit7=T Bit6=T Bit5=T Bit4=T Bit3=T Bit2=T Bit1=T Bit0=T
; 0000 0051 PORTA=(0<<PORTA7) | (0<<PORTA6) | (0<<PORTA5) | (0<<PORTA4) | (0<<PORTA3) | (0<<PORTA2) | (0<<PORTA1) | (0<<PORTA0);
	OUT  0x1B,R30
; 0000 0052 
; 0000 0053 // Port B initialization
; 0000 0054 // Function: Bit7=In Bit6=In Bit5=In Bit4=In Bit3=In Bit2=In Bit1=In Bit0=In
; 0000 0055 DDRB=(0<<DDB7) | (0<<DDB6) | (0<<DDB5) | (0<<DDB4) | (0<<DDB3) | (0<<DDB2) | (0<<DDB1) | (0<<DDB0);
	OUT  0x17,R30
; 0000 0056 // State: Bit7=T Bit6=T Bit5=T Bit4=T Bit3=T Bit2=T Bit1=T Bit0=T
; 0000 0057 PORTB=(0<<PORTB7) | (0<<PORTB6) | (0<<PORTB5) | (0<<PORTB4) | (0<<PORTB3) | (0<<PORTB2) | (0<<PORTB1) | (0<<PORTB0);
	OUT  0x18,R30
; 0000 0058 
; 0000 0059 // Port C initialization
; 0000 005A // Function: Bit7=In Bit6=In Bit5=In Bit4=In Bit3=In Bit2=In Bit1=In Bit0=In
; 0000 005B DDRC=(0<<DDC7) | (0<<DDC6) | (0<<DDC5) | (0<<DDC4) | (0<<DDC3) | (0<<DDC2) | (0<<DDC1) | (0<<DDC0);
	OUT  0x14,R30
; 0000 005C // State: Bit7=T Bit6=T Bit5=T Bit4=T Bit3=T Bit2=T Bit1=T Bit0=T
; 0000 005D PORTC=(0<<PORTC7) | (0<<PORTC6) | (0<<PORTC5) | (0<<PORTC4) | (0<<PORTC3) | (0<<PORTC2) | (0<<PORTC1) | (0<<PORTC0);
	OUT  0x15,R30
; 0000 005E 
; 0000 005F // Port D initialization
; 0000 0060 // Function: Bit7=In Bit6=In Bit5=In Bit4=In Bit3=In Bit2=In Bit1=In Bit0=In
; 0000 0061 DDRD=(0<<DDD7) | (0<<DDD6) | (0<<DDD5) | (0<<DDD4) | (0<<DDD3) | (0<<DDD2) | (0<<DDD1) | (0<<DDD0);
	OUT  0x11,R30
; 0000 0062 // State: Bit7=T Bit6=T Bit5=T Bit4=T Bit3=T Bit2=T Bit1=T Bit0=T
; 0000 0063 PORTD=(0<<PORTD7) | (0<<PORTD6) | (0<<PORTD5) | (0<<PORTD4) | (0<<PORTD3) | (0<<PORTD2) | (0<<PORTD1) | (0<<PORTD0);
	OUT  0x12,R30
; 0000 0064 
; 0000 0065 // Timer/Counter 0 initialization
; 0000 0066 // Clock source: System Clock
; 0000 0067 // Clock value: 15.625 kHz
; 0000 0068 // Mode: CTC top=OCR0
; 0000 0069 // OC0 output: Disconnected
; 0000 006A // Timer Period: 16 ms
; 0000 006B TCCR0=(0<<WGM00) | (0<<COM01) | (0<<COM00) | (1<<WGM01) | (1<<CS02) | (0<<CS01) | (1<<CS00);
	LDI  R30,LOW(13)
	OUT  0x33,R30
; 0000 006C TCNT0=0x00;
	LDI  R30,LOW(0)
	OUT  0x32,R30
; 0000 006D OCR0=0xF9;
	LDI  R30,LOW(249)
	OUT  0x3C,R30
; 0000 006E 
; 0000 006F // Timer/Counter 1 initialization
; 0000 0070 // Clock source: System Clock
; 0000 0071 // Clock value: Timer1 Stopped
; 0000 0072 // Mode: Normal top=0xFFFF
; 0000 0073 // OC1A output: Disconnected
; 0000 0074 // OC1B output: Disconnected
; 0000 0075 // Noise Canceler: Off
; 0000 0076 // Input Capture on Falling Edge
; 0000 0077 // Timer1 Overflow Interrupt: Off
; 0000 0078 // Input Capture Interrupt: Off
; 0000 0079 // Compare A Match Interrupt: Off
; 0000 007A // Compare B Match Interrupt: Off
; 0000 007B TCCR1A=(0<<COM1A1) | (0<<COM1A0) | (0<<COM1B1) | (0<<COM1B0) | (0<<WGM11) | (0<<WGM10);
	LDI  R30,LOW(0)
	OUT  0x2F,R30
; 0000 007C TCCR1B=(0<<ICNC1) | (0<<ICES1) | (0<<WGM13) | (0<<WGM12) | (0<<CS12) | (0<<CS11) | (0<<CS10);
	OUT  0x2E,R30
; 0000 007D TCNT1H=0x00;
	OUT  0x2D,R30
; 0000 007E TCNT1L=0x00;
	OUT  0x2C,R30
; 0000 007F ICR1H=0x00;
	OUT  0x27,R30
; 0000 0080 ICR1L=0x00;
	OUT  0x26,R30
; 0000 0081 OCR1AH=0x00;
	OUT  0x2B,R30
; 0000 0082 OCR1AL=0x00;
	OUT  0x2A,R30
; 0000 0083 OCR1BH=0x00;
	OUT  0x29,R30
; 0000 0084 OCR1BL=0x00;
	OUT  0x28,R30
; 0000 0085 
; 0000 0086 // Timer/Counter 2 initialization
; 0000 0087 // Clock source: System Clock
; 0000 0088 // Clock value: Timer2 Stopped
; 0000 0089 // Mode: Normal top=0xFF
; 0000 008A // OC2 output: Disconnected
; 0000 008B ASSR=0<<AS2;
	OUT  0x22,R30
; 0000 008C TCCR2=(0<<WGM20) | (0<<COM21) | (0<<COM20) | (0<<WGM21) | (0<<CS22) | (0<<CS21) | (0<<CS20);
	OUT  0x25,R30
; 0000 008D TCNT2=0x00;
	OUT  0x24,R30
; 0000 008E OCR2=0x00;
	OUT  0x23,R30
; 0000 008F 
; 0000 0090 // Timer(s)/Counter(s) Interrupt(s) initialization
; 0000 0091 TIMSK=(0<<OCIE2) | (0<<TOIE2) | (0<<TICIE1) | (0<<OCIE1A) | (0<<OCIE1B) | (0<<TOIE1) | (1<<OCIE0) | (0<<TOIE0);
	LDI  R30,LOW(2)
	OUT  0x39,R30
; 0000 0092 
; 0000 0093 // External Interrupt(s) initialization
; 0000 0094 // INT0: Off
; 0000 0095 // INT1: Off
; 0000 0096 // INT2: Off
; 0000 0097 MCUCR=(0<<ISC11) | (0<<ISC10) | (0<<ISC01) | (0<<ISC00);
	LDI  R30,LOW(0)
	OUT  0x35,R30
; 0000 0098 MCUCSR=(0<<ISC2);
	OUT  0x34,R30
; 0000 0099 
; 0000 009A // USART initialization
; 0000 009B // USART disabled
; 0000 009C UCSRB=(0<<RXCIE) | (0<<TXCIE) | (0<<UDRIE) | (0<<RXEN) | (0<<TXEN) | (0<<UCSZ2) | (0<<RXB8) | (0<<TXB8);
	OUT  0xA,R30
; 0000 009D 
; 0000 009E // Analog Comparator initialization
; 0000 009F // Analog Comparator: Off
; 0000 00A0 // The Analog Comparator's positive input is
; 0000 00A1 // connected to the AIN0 pin
; 0000 00A2 // The Analog Comparator's negative input is
; 0000 00A3 // connected to the AIN1 pin
; 0000 00A4 ACSR=(1<<ACD) | (0<<ACBG) | (0<<ACO) | (0<<ACI) | (0<<ACIE) | (0<<ACIC) | (0<<ACIS1) | (0<<ACIS0);
	LDI  R30,LOW(128)
	OUT  0x8,R30
; 0000 00A5 
; 0000 00A6 // ADC initialization
; 0000 00A7 // ADC Clock frequency: 500.000 kHz
; 0000 00A8 // ADC Voltage Reference: AVCC pin
; 0000 00A9 // ADC High Speed Mode: Off
; 0000 00AA // ADC Auto Trigger Source: Free Running
; 0000 00AB ADMUX=FIRST_ADC_INPUT | ADC_VREF_TYPE;
	LDI  R30,LOW(64)
	OUT  0x7,R30
; 0000 00AC ADCSRA=(1<<ADEN) | (1<<ADSC) | (1<<ADATE) | (0<<ADIF) | (1<<ADIE) | (1<<ADPS2) | (0<<ADPS1) | (1<<ADPS0);
	LDI  R30,LOW(237)
	OUT  0x6,R30
; 0000 00AD SFIOR=(1<<ADHSM) | (0<<ADTS2) | (0<<ADTS1) | (0<<ADTS0);
	LDI  R30,LOW(16)
	OUT  0x30,R30
; 0000 00AE 
; 0000 00AF // SPI initialization
; 0000 00B0 // SPI disabled
; 0000 00B1 SPCR=(0<<SPIE) | (0<<SPE) | (0<<DORD) | (0<<MSTR) | (0<<CPOL) | (0<<CPHA) | (0<<SPR1) | (0<<SPR0);
	LDI  R30,LOW(0)
	OUT  0xD,R30
; 0000 00B2 
; 0000 00B3 // TWI initialization
; 0000 00B4 // TWI disabled
; 0000 00B5 TWCR=(0<<TWEA) | (0<<TWSTA) | (0<<TWSTO) | (0<<TWEN) | (0<<TWIE);
	OUT  0x36,R30
; 0000 00B6 
; 0000 00B7 // Alphanumeric LCD initialization
; 0000 00B8 // Connections are specified in the
; 0000 00B9 // Project|Configure|C Compiler|Libraries|Alphanumeric LCD menu:
; 0000 00BA // RS: PORTB Bit 0
; 0000 00BB // RD: PORTB Bit 1
; 0000 00BC // EN: PORTB Bit 2
; 0000 00BD // D4: PORTB Bit 4
; 0000 00BE // D5: PORTB Bit 5
; 0000 00BF // D6: PORTB Bit 6
; 0000 00C0 // D7: PORTB Bit 7
; 0000 00C1 // Characters/line: 40
; 0000 00C2 lcd_init(40);
	LDI  R26,LOW(40)
	RCALL _lcd_init
; 0000 00C3 lcd_init(20);
	LDI  R26,LOW(20)
	RCALL _lcd_init
; 0000 00C4 lcd_init(20);
	LDI  R26,LOW(20)
	RCALL _lcd_init
; 0000 00C5 lcd_gotoxy(0,0);
	RCALL SUBOPT_0x0
	RCALL SUBOPT_0x1
; 0000 00C6 lcd_puts("Hello");
	__POINTW2MN _0x6,0
	RCALL _lcd_puts
; 0000 00C7 lcd_gotoxy(0,1);
	RCALL SUBOPT_0x0
	RCALL SUBOPT_0x2
; 0000 00C8 lcd_putchar(0x32);
	LDI  R26,LOW(50)
	RCALL _lcd_putchar
; 0000 00C9 lcd_clear();
	RCALL _lcd_clear
; 0000 00CA // Globally enable interrupts
; 0000 00CB #asm("sei")
	SEI
; 0000 00CC 
; 0000 00CD while (1)
_0x7:
; 0000 00CE {
; 0000 00CF // Place your code here
; 0000 00D0 lcd_gotoxy(0,1);
	RCALL SUBOPT_0x0
	RCALL SUBOPT_0x2
; 0000 00D1 lcd_putchar((adc_data[0]/1000)+0x30);
	RCALL SUBOPT_0x3
	RCALL SUBOPT_0x4
; 0000 00D2 lcd_gotoxy(1,1);
	LDI  R30,LOW(1)
	RCALL SUBOPT_0x5
; 0000 00D3 lcd_putchar((adc_data[0]%1000)/100+0x30);
	RCALL SUBOPT_0x3
	RCALL SUBOPT_0x6
	RCALL SUBOPT_0x4
; 0000 00D4 lcd_gotoxy(2,1);
	LDI  R30,LOW(2)
	RCALL SUBOPT_0x5
; 0000 00D5 lcd_putchar((adc_data[0]%1000)%100/10+0x30);
	RCALL SUBOPT_0x3
	RCALL SUBOPT_0x6
	RCALL SUBOPT_0x7
	RCALL SUBOPT_0x4
; 0000 00D6 lcd_gotoxy(3,1);
	LDI  R30,LOW(3)
	RCALL SUBOPT_0x5
; 0000 00D7 lcd_putchar((adc_data[0]%1000)%100%10+0x30);
	RCALL SUBOPT_0x3
	RCALL SUBOPT_0x6
	RCALL SUBOPT_0x7
	RCALL SUBOPT_0x8
; 0000 00D8 
; 0000 00D9 lcd_gotoxy(6,1);
	LDI  R30,LOW(6)
	RCALL SUBOPT_0x5
; 0000 00DA lcd_putchar((adc_data[1]/1000)+0x30);
	RCALL SUBOPT_0x9
	RCALL SUBOPT_0x4
; 0000 00DB lcd_gotoxy(7,1);
	LDI  R30,LOW(7)
	RCALL SUBOPT_0x5
; 0000 00DC lcd_putchar((adc_data[1]%1000)/100+0x30);
	RCALL SUBOPT_0x9
	RCALL SUBOPT_0x6
	RCALL SUBOPT_0x4
; 0000 00DD lcd_gotoxy(8,1);
	LDI  R30,LOW(8)
	RCALL SUBOPT_0x5
; 0000 00DE lcd_putchar((adc_data[1]%1000)%100/10+0x30);
	RCALL SUBOPT_0x9
	RCALL SUBOPT_0x6
	RCALL SUBOPT_0x7
	RCALL SUBOPT_0x4
; 0000 00DF lcd_gotoxy(9,1);
	LDI  R30,LOW(9)
	RCALL SUBOPT_0x5
; 0000 00E0 lcd_putchar((adc_data[1]%1000)%100%10+0x30);
	RCALL SUBOPT_0x9
	RCALL SUBOPT_0x6
	RCALL SUBOPT_0x7
	RCALL SUBOPT_0x8
; 0000 00E1 
; 0000 00E2 lcd_gotoxy(0,3);
	RCALL SUBOPT_0x0
	RCALL SUBOPT_0xA
; 0000 00E3 lcd_putchar((adc_data[2]/1000)+0x30);
	RCALL SUBOPT_0x4
; 0000 00E4 lcd_gotoxy(1,3);
	LDI  R30,LOW(1)
	ST   -Y,R30
	RCALL SUBOPT_0xA
; 0000 00E5 lcd_putchar((adc_data[2]%1000)/100+0x30);
	RCALL SUBOPT_0x6
	RCALL SUBOPT_0x4
; 0000 00E6 lcd_gotoxy(2,3);
	LDI  R30,LOW(2)
	ST   -Y,R30
	RCALL SUBOPT_0xA
; 0000 00E7 lcd_putchar((adc_data[2]%1000)%100/10+0x30);
	RCALL SUBOPT_0x6
	RCALL SUBOPT_0x7
	RCALL SUBOPT_0x4
; 0000 00E8 lcd_gotoxy(3,3);
	LDI  R30,LOW(3)
	ST   -Y,R30
	RCALL SUBOPT_0xA
; 0000 00E9 lcd_putchar((adc_data[2]%1000)%100%10+0x30);
	RCALL SUBOPT_0x6
	RCALL SUBOPT_0x7
	RCALL SUBOPT_0x8
; 0000 00EA 
; 0000 00EB lcd_gotoxy(6,3);
	LDI  R30,LOW(6)
	RCALL SUBOPT_0xB
; 0000 00EC lcd_putchar((adc_data[3]/1000)+0x30);
	RCALL SUBOPT_0x4
; 0000 00ED lcd_gotoxy(7,3);
	LDI  R30,LOW(7)
	RCALL SUBOPT_0xB
; 0000 00EE lcd_putchar((adc_data[3]%1000)/100+0x30);
	RCALL SUBOPT_0x6
	RCALL SUBOPT_0x4
; 0000 00EF lcd_gotoxy(8,3);
	LDI  R30,LOW(8)
	RCALL SUBOPT_0xB
; 0000 00F0 lcd_putchar((adc_data[3]%1000)%100/10+0x30);
	RCALL SUBOPT_0x6
	RCALL SUBOPT_0x7
	RCALL SUBOPT_0x4
; 0000 00F1 lcd_gotoxy(9,3);
	LDI  R30,LOW(9)
	RCALL SUBOPT_0xB
; 0000 00F2 lcd_putchar((adc_data[3]%1000)%100%10+0x30);
	RCALL SUBOPT_0x6
	RCALL SUBOPT_0x7
	RCALL SUBOPT_0x8
; 0000 00F3 
; 0000 00F4 adc_value[0] = (float)adc_data[0]*5000/1023;
	LDS  R30,_adc_data
	LDS  R31,_adc_data+1
	RCALL SUBOPT_0xC
	STS  _adc_value,R30
	STS  _adc_value+1,R31
	STS  _adc_value+2,R22
	STS  _adc_value+3,R23
; 0000 00F5 lcd_gotoxy(0,0);
	RCALL SUBOPT_0x0
	RCALL SUBOPT_0x1
; 0000 00F6 lcd_putchar(((int)adc_value[0]/1000)+0x30);
	RCALL SUBOPT_0xD
	RCALL SUBOPT_0xE
; 0000 00F7 lcd_gotoxy(1,0);
	LDI  R30,LOW(1)
	RCALL SUBOPT_0xF
; 0000 00F8 lcd_putchar(((int)adc_value[0]%1000)/100+0x30);
	RCALL SUBOPT_0xD
	RCALL SUBOPT_0x10
	RCALL SUBOPT_0xE
; 0000 00F9 lcd_gotoxy(2,0);
	LDI  R30,LOW(2)
	RCALL SUBOPT_0xF
; 0000 00FA lcd_putchar(((int)adc_value[0]%1000)%100/10+0x30);
	RCALL SUBOPT_0xD
	RCALL SUBOPT_0x10
	RCALL SUBOPT_0x11
	RCALL SUBOPT_0xE
; 0000 00FB lcd_gotoxy(3,0);
	LDI  R30,LOW(3)
	RCALL SUBOPT_0xF
; 0000 00FC lcd_putchar(((int)adc_value[0]%1000)%100%10+0x30);
	RCALL SUBOPT_0xD
	RCALL SUBOPT_0x10
	RCALL SUBOPT_0x11
	RCALL SUBOPT_0x12
; 0000 00FD 
; 0000 00FE adc_value[1] = (float)adc_data[1]*5000/1023;
	__GETW1MN _adc_data,2
	RCALL SUBOPT_0xC
	__PUTD1MN _adc_value,4
; 0000 00FF lcd_gotoxy(6,0);
	LDI  R30,LOW(6)
	RCALL SUBOPT_0xF
; 0000 0100 lcd_putchar(((int)adc_value[1]/1000)+0x30);
	RCALL SUBOPT_0x13
	RCALL SUBOPT_0xE
; 0000 0101 lcd_gotoxy(7,0);
	LDI  R30,LOW(7)
	RCALL SUBOPT_0xF
; 0000 0102 lcd_putchar(((int)adc_value[1]%1000)/100+0x30);
	RCALL SUBOPT_0x13
	RCALL SUBOPT_0x10
	RCALL SUBOPT_0xE
; 0000 0103 lcd_gotoxy(8,0);
	LDI  R30,LOW(8)
	RCALL SUBOPT_0xF
; 0000 0104 lcd_putchar(((int)adc_value[1]%1000)%100/10+0x30);
	RCALL SUBOPT_0x13
	RCALL SUBOPT_0x10
	RCALL SUBOPT_0x11
	RCALL SUBOPT_0xE
; 0000 0105 lcd_gotoxy(9,0);
	LDI  R30,LOW(9)
	RCALL SUBOPT_0xF
; 0000 0106 lcd_putchar(((int)adc_value[1]%1000)%100%10+0x30);
	RCALL SUBOPT_0x13
	RCALL SUBOPT_0x10
	RCALL SUBOPT_0x11
	RCALL SUBOPT_0x12
; 0000 0107 
; 0000 0108 lcd_gotoxy(15,0);
	LDI  R30,LOW(15)
	RCALL SUBOPT_0xF
; 0000 0109 lcd_putchar((ticks/10)+0x30);
	MOVW R26,R6
	LDI  R30,LOW(10)
	LDI  R31,HIGH(10)
	RCALL SUBOPT_0xE
; 0000 010A lcd_gotoxy(16,0);
	LDI  R30,LOW(16)
	RCALL SUBOPT_0xF
; 0000 010B lcd_putchar((ticks%10)+0x30);
	MOVW R26,R6
	LDI  R30,LOW(10)
	LDI  R31,HIGH(10)
	RCALL SUBOPT_0x12
; 0000 010C }
	RJMP _0x7
; 0000 010D }
_0xA:
	RJMP _0xA
; .FEND

	.DSEG
_0x6:
	.BYTE 0x6
	#ifndef __SLEEP_DEFINED__
	#define __SLEEP_DEFINED__
	.EQU __se_bit=0x40
	.EQU __sm_mask=0xB0
	.EQU __sm_powerdown=0x20
	.EQU __sm_powersave=0x30
	.EQU __sm_standby=0xA0
	.EQU __sm_ext_standby=0xB0
	.EQU __sm_adc_noise_red=0x10
	.SET power_ctrl_reg=mcucr
	#endif

	.DSEG

	.CSEG
__lcd_write_nibble_G100:
; .FSTART __lcd_write_nibble_G100
	ST   -Y,R17
	MOV  R17,R26
	IN   R30,0x18
	ANDI R30,LOW(0xF)
	MOV  R26,R30
	MOV  R30,R17
	ANDI R30,LOW(0xF0)
	OR   R30,R26
	OUT  0x18,R30
	RCALL SUBOPT_0x14
	SBI  0x18,2
	RCALL SUBOPT_0x14
	CBI  0x18,2
	RCALL SUBOPT_0x14
	RJMP _0x2080001
; .FEND
__lcd_write_data:
; .FSTART __lcd_write_data
	ST   -Y,R26
	LD   R26,Y
	RCALL __lcd_write_nibble_G100
    ld    r30,y
    swap  r30
    st    y,r30
	LD   R26,Y
	RCALL __lcd_write_nibble_G100
	__DELAY_USW 200
	ADIW R28,1
	RET
; .FEND
_lcd_gotoxy:
; .FSTART _lcd_gotoxy
	RCALL __SAVELOCR2
	MOV  R17,R26
	LDD  R16,Y+2
	MOV  R30,R17
	LDI  R31,0
	SUBI R30,LOW(-__base_y_G100)
	SBCI R31,HIGH(-__base_y_G100)
	LD   R30,Z
	ADD  R30,R16
	MOV  R26,R30
	RCALL __lcd_write_data
	MOV  R9,R16
	MOV  R8,R17
	RCALL __LOADLOCR2
	ADIW R28,3
	RET
; .FEND
_lcd_clear:
; .FSTART _lcd_clear
	LDI  R26,LOW(2)
	RCALL SUBOPT_0x15
	LDI  R26,LOW(12)
	RCALL __lcd_write_data
	LDI  R26,LOW(1)
	RCALL SUBOPT_0x15
	LDI  R30,LOW(0)
	MOV  R8,R30
	MOV  R9,R30
	RET
; .FEND
_lcd_putchar:
; .FSTART _lcd_putchar
	ST   -Y,R17
	MOV  R17,R26
	CPI  R17,10
	BREQ _0x2000005
	CP   R9,R11
	BRLO _0x2000004
_0x2000005:
	RCALL SUBOPT_0x0
	INC  R8
	MOV  R26,R8
	RCALL _lcd_gotoxy
	CPI  R17,10
	BREQ _0x2080001
_0x2000004:
	INC  R9
	SBI  0x18,0
	MOV  R26,R17
	RCALL __lcd_write_data
	CBI  0x18,0
	RJMP _0x2080001
; .FEND
_lcd_puts:
; .FSTART _lcd_puts
	RCALL __SAVELOCR4
	MOVW R18,R26
_0x2000008:
	MOVW R26,R18
	__ADDWRN 18,19,1
	LD   R30,X
	MOV  R17,R30
	CPI  R30,0
	BREQ _0x200000A
	MOV  R26,R17
	RCALL _lcd_putchar
	RJMP _0x2000008
_0x200000A:
	RCALL __LOADLOCR4
	ADIW R28,4
	RET
; .FEND
_lcd_init:
; .FSTART _lcd_init
	ST   -Y,R17
	MOV  R17,R26
	IN   R30,0x17
	ORI  R30,LOW(0xF0)
	OUT  0x17,R30
	SBI  0x17,2
	SBI  0x17,0
	SBI  0x17,1
	CBI  0x18,2
	CBI  0x18,0
	CBI  0x18,1
	MOV  R11,R17
	MOV  R30,R17
	SUBI R30,-LOW(128)
	__PUTB1MN __base_y_G100,2
	MOV  R30,R17
	SUBI R30,-LOW(192)
	__PUTB1MN __base_y_G100,3
	LDI  R26,LOW(20)
	LDI  R27,0
	RCALL _delay_ms
	RCALL SUBOPT_0x16
	RCALL SUBOPT_0x16
	RCALL SUBOPT_0x16
	LDI  R26,LOW(32)
	RCALL __lcd_write_nibble_G100
	__DELAY_USW 400
	LDI  R26,LOW(40)
	RCALL __lcd_write_data
	LDI  R26,LOW(4)
	RCALL __lcd_write_data
	LDI  R26,LOW(133)
	RCALL __lcd_write_data
	LDI  R26,LOW(6)
	RCALL __lcd_write_data
	RCALL _lcd_clear
_0x2080001:
	LD   R17,Y+
	RET
; .FEND
	#ifndef __SLEEP_DEFINED__
	#define __SLEEP_DEFINED__
	.EQU __se_bit=0x40
	.EQU __sm_mask=0xB0
	.EQU __sm_powerdown=0x20
	.EQU __sm_powersave=0x30
	.EQU __sm_standby=0xA0
	.EQU __sm_ext_standby=0xB0
	.EQU __sm_adc_noise_red=0x10
	.SET power_ctrl_reg=mcucr
	#endif

	.CSEG

	.CSEG

	.CSEG

	.DSEG
_adc_data:
	.BYTE 0x8
_input_index_S0000001000:
	.BYTE 0x1
_adc_value:
	.BYTE 0x10
__base_y_G100:
	.BYTE 0x4

	.CSEG
;OPTIMIZER ADDED SUBROUTINE, CALLED 6 TIMES, CODE SIZE REDUCTION:3 WORDS
SUBOPT_0x0:
	LDI  R30,LOW(0)
	ST   -Y,R30
	RET

;OPTIMIZER ADDED SUBROUTINE, CALLED 11 TIMES, CODE SIZE REDUCTION:8 WORDS
SUBOPT_0x1:
	LDI  R26,LOW(0)
	RJMP _lcd_gotoxy

;OPTIMIZER ADDED SUBROUTINE, CALLED 9 TIMES, CODE SIZE REDUCTION:6 WORDS
SUBOPT_0x2:
	LDI  R26,LOW(1)
	RJMP _lcd_gotoxy

;OPTIMIZER ADDED SUBROUTINE, CALLED 4 TIMES, CODE SIZE REDUCTION:13 WORDS
SUBOPT_0x3:
	LDS  R26,_adc_data
	LDS  R27,_adc_data+1
	LDI  R30,LOW(1000)
	LDI  R31,HIGH(1000)
	RET

;OPTIMIZER ADDED SUBROUTINE, CALLED 12 TIMES, CODE SIZE REDUCTION:31 WORDS
SUBOPT_0x4:
	RCALL __DIVW21U
	SUBI R30,-LOW(48)
	MOV  R26,R30
	RJMP _lcd_putchar

;OPTIMIZER ADDED SUBROUTINE, CALLED 7 TIMES, CODE SIZE REDUCTION:4 WORDS
SUBOPT_0x5:
	ST   -Y,R30
	RJMP SUBOPT_0x2

;OPTIMIZER ADDED SUBROUTINE, CALLED 12 TIMES, CODE SIZE REDUCTION:31 WORDS
SUBOPT_0x6:
	RCALL __MODW21U
	MOVW R26,R30
	LDI  R30,LOW(100)
	LDI  R31,HIGH(100)
	RET

;OPTIMIZER ADDED SUBROUTINE, CALLED 8 TIMES, CODE SIZE REDUCTION:19 WORDS
SUBOPT_0x7:
	RCALL __MODW21U
	MOVW R26,R30
	LDI  R30,LOW(10)
	LDI  R31,HIGH(10)
	RET

;OPTIMIZER ADDED SUBROUTINE, CALLED 4 TIMES, CODE SIZE REDUCTION:7 WORDS
SUBOPT_0x8:
	RCALL __MODW21U
	SUBI R30,-LOW(48)
	MOV  R26,R30
	RJMP _lcd_putchar

;OPTIMIZER ADDED SUBROUTINE, CALLED 4 TIMES, CODE SIZE REDUCTION:13 WORDS
SUBOPT_0x9:
	__GETW2MN _adc_data,2
	LDI  R30,LOW(1000)
	LDI  R31,HIGH(1000)
	RET

;OPTIMIZER ADDED SUBROUTINE, CALLED 4 TIMES, CODE SIZE REDUCTION:19 WORDS
SUBOPT_0xA:
	LDI  R26,LOW(3)
	RCALL _lcd_gotoxy
	__GETW2MN _adc_data,4
	LDI  R30,LOW(1000)
	LDI  R31,HIGH(1000)
	RET

;OPTIMIZER ADDED SUBROUTINE, CALLED 4 TIMES, CODE SIZE REDUCTION:22 WORDS
SUBOPT_0xB:
	ST   -Y,R30
	LDI  R26,LOW(3)
	RCALL _lcd_gotoxy
	__GETW2MN _adc_data,6
	LDI  R30,LOW(1000)
	LDI  R31,HIGH(1000)
	RET

;OPTIMIZER ADDED SUBROUTINE, CALLED 2 TIMES, CODE SIZE REDUCTION:12 WORDS
SUBOPT_0xC:
	CLR  R22
	CLR  R23
	RCALL __CDF1
	__GETD2N 0x459C4000
	RCALL __MULF12
	MOVW R26,R30
	MOVW R24,R22
	__GETD1N 0x447FC000
	RCALL __DIVF21
	RET

;OPTIMIZER ADDED SUBROUTINE, CALLED 4 TIMES, CODE SIZE REDUCTION:31 WORDS
SUBOPT_0xD:
	LDS  R30,_adc_value
	LDS  R31,_adc_value+1
	LDS  R22,_adc_value+2
	LDS  R23,_adc_value+3
	RCALL __CFD1
	MOVW R26,R30
	LDI  R30,LOW(1000)
	LDI  R31,HIGH(1000)
	RET

;OPTIMIZER ADDED SUBROUTINE, CALLED 7 TIMES, CODE SIZE REDUCTION:16 WORDS
SUBOPT_0xE:
	RCALL __DIVW21
	SUBI R30,-LOW(48)
	MOV  R26,R30
	RJMP _lcd_putchar

;OPTIMIZER ADDED SUBROUTINE, CALLED 9 TIMES, CODE SIZE REDUCTION:6 WORDS
SUBOPT_0xF:
	ST   -Y,R30
	RJMP SUBOPT_0x1

;OPTIMIZER ADDED SUBROUTINE, CALLED 6 TIMES, CODE SIZE REDUCTION:13 WORDS
SUBOPT_0x10:
	RCALL __MODW21
	MOVW R26,R30
	LDI  R30,LOW(100)
	LDI  R31,HIGH(100)
	RET

;OPTIMIZER ADDED SUBROUTINE, CALLED 4 TIMES, CODE SIZE REDUCTION:7 WORDS
SUBOPT_0x11:
	RCALL __MODW21
	MOVW R26,R30
	LDI  R30,LOW(10)
	LDI  R31,HIGH(10)
	RET

;OPTIMIZER ADDED SUBROUTINE, CALLED 3 TIMES, CODE SIZE REDUCTION:4 WORDS
SUBOPT_0x12:
	RCALL __MODW21
	SUBI R30,-LOW(48)
	MOV  R26,R30
	RJMP _lcd_putchar

;OPTIMIZER ADDED SUBROUTINE, CALLED 4 TIMES, CODE SIZE REDUCTION:31 WORDS
SUBOPT_0x13:
	__GETD1MN _adc_value,4
	RCALL __CFD1
	MOVW R26,R30
	LDI  R30,LOW(1000)
	LDI  R31,HIGH(1000)
	RET

;OPTIMIZER ADDED SUBROUTINE, CALLED 3 TIMES, CODE SIZE REDUCTION:2 WORDS
SUBOPT_0x14:
	__DELAY_USB 27
	RET

;OPTIMIZER ADDED SUBROUTINE, CALLED 2 TIMES, CODE SIZE REDUCTION:1 WORDS
SUBOPT_0x15:
	RCALL __lcd_write_data
	LDI  R26,LOW(3)
	LDI  R27,0
	RJMP _delay_ms

;OPTIMIZER ADDED SUBROUTINE, CALLED 3 TIMES, CODE SIZE REDUCTION:8 WORDS
SUBOPT_0x16:
	LDI  R26,LOW(48)
	RCALL __lcd_write_nibble_G100
	__DELAY_USW 400
	RET

;RUNTIME LIBRARY

	.CSEG
__SAVELOCR4:
	ST   -Y,R19
__SAVELOCR3:
	ST   -Y,R18
__SAVELOCR2:
	ST   -Y,R17
	ST   -Y,R16
	RET

__LOADLOCR4:
	LDD  R19,Y+3
__LOADLOCR3:
	LDD  R18,Y+2
__LOADLOCR2:
	LDD  R17,Y+1
	LD   R16,Y
	RET

__ANEGW1:
	NEG  R31
	NEG  R30
	SBCI R31,0
	RET

__ANEGD1:
	COM  R31
	COM  R22
	COM  R23
	NEG  R30
	SBCI R31,-1
	SBCI R22,-1
	SBCI R23,-1
	RET

__DIVW21U:
	CLR  R0
	CLR  R1
	LDI  R25,16
__DIVW21U1:
	LSL  R26
	ROL  R27
	ROL  R0
	ROL  R1
	SUB  R0,R30
	SBC  R1,R31
	BRCC __DIVW21U2
	ADD  R0,R30
	ADC  R1,R31
	RJMP __DIVW21U3
__DIVW21U2:
	SBR  R26,1
__DIVW21U3:
	DEC  R25
	BRNE __DIVW21U1
	MOVW R30,R26
	MOVW R26,R0
	RET

__DIVW21:
	RCALL __CHKSIGNW
	RCALL __DIVW21U
	BRTC __DIVW211
	RCALL __ANEGW1
__DIVW211:
	RET

__MODW21U:
	RCALL __DIVW21U
	MOVW R30,R26
	RET

__MODW21:
	CLT
	SBRS R27,7
	RJMP __MODW211
	NEG  R27
	NEG  R26
	SBCI R27,0
	SET
__MODW211:
	SBRC R31,7
	RCALL __ANEGW1
	RCALL __DIVW21U
	MOVW R30,R26
	BRTC __MODW212
	RCALL __ANEGW1
__MODW212:
	RET

__CHKSIGNW:
	CLT
	SBRS R31,7
	RJMP __CHKSW1
	RCALL __ANEGW1
	SET
__CHKSW1:
	SBRS R27,7
	RJMP __CHKSW2
	NEG  R27
	NEG  R26
	SBCI R27,0
	BLD  R0,0
	INC  R0
	BST  R0,0
__CHKSW2:
	RET

__ROUND_REPACK:
	TST  R21
	BRPL __REPACK
	CPI  R21,0x80
	BRNE __ROUND_REPACK0
	SBRS R30,0
	RJMP __REPACK
__ROUND_REPACK0:
	ADIW R30,1
	ADC  R22,R25
	ADC  R23,R25
	BRVS __REPACK1

__REPACK:
	LDI  R21,0x80
	EOR  R21,R23
	BRNE __REPACK0
	PUSH R21
	RJMP __ZERORES
__REPACK0:
	CPI  R21,0xFF
	BREQ __REPACK1
	LSL  R22
	LSL  R0
	ROR  R21
	ROR  R22
	MOV  R23,R21
	RET
__REPACK1:
	PUSH R21
	TST  R0
	BRMI __REPACK2
	RJMP __MAXRES
__REPACK2:
	RJMP __MINRES

__UNPACK:
	LDI  R21,0x80
	MOV  R1,R25
	AND  R1,R21
	LSL  R24
	ROL  R25
	EOR  R25,R21
	LSL  R21
	ROR  R24

__UNPACK1:
	LDI  R21,0x80
	MOV  R0,R23
	AND  R0,R21
	LSL  R22
	ROL  R23
	EOR  R23,R21
	LSL  R21
	ROR  R22
	RET

__CFD1U:
	SET
	RJMP __CFD1U0
__CFD1:
	CLT
__CFD1U0:
	PUSH R21
	RCALL __UNPACK1
	CPI  R23,0x80
	BRLO __CFD10
	CPI  R23,0xFF
	BRCC __CFD10
	RJMP __ZERORES
__CFD10:
	LDI  R21,22
	SUB  R21,R23
	BRPL __CFD11
	NEG  R21
	CPI  R21,8
	BRTC __CFD19
	CPI  R21,9
__CFD19:
	BRLO __CFD17
	SER  R30
	SER  R31
	SER  R22
	LDI  R23,0x7F
	BLD  R23,7
	RJMP __CFD15
__CFD17:
	CLR  R23
	TST  R21
	BREQ __CFD15
__CFD18:
	LSL  R30
	ROL  R31
	ROL  R22
	ROL  R23
	DEC  R21
	BRNE __CFD18
	RJMP __CFD15
__CFD11:
	CLR  R23
__CFD12:
	CPI  R21,8
	BRLO __CFD13
	MOV  R30,R31
	MOV  R31,R22
	MOV  R22,R23
	SUBI R21,8
	RJMP __CFD12
__CFD13:
	TST  R21
	BREQ __CFD15
__CFD14:
	LSR  R23
	ROR  R22
	ROR  R31
	ROR  R30
	DEC  R21
	BRNE __CFD14
__CFD15:
	TST  R0
	BRPL __CFD16
	RCALL __ANEGD1
__CFD16:
	POP  R21
	RET

__CDF1U:
	SET
	RJMP __CDF1U0
__CDF1:
	CLT
__CDF1U0:
	SBIW R30,0
	SBCI R22,0
	SBCI R23,0
	BREQ __CDF10
	CLR  R0
	BRTS __CDF11
	TST  R23
	BRPL __CDF11
	COM  R0
	RCALL __ANEGD1
__CDF11:
	MOV  R1,R23
	LDI  R23,30
	TST  R1
__CDF12:
	BRMI __CDF13
	DEC  R23
	LSL  R30
	ROL  R31
	ROL  R22
	ROL  R1
	RJMP __CDF12
__CDF13:
	MOV  R30,R31
	MOV  R31,R22
	MOV  R22,R1
	PUSH R21
	RCALL __REPACK
	POP  R21
__CDF10:
	RET

__ZERORES:
	CLR  R30
	CLR  R31
	MOVW R22,R30
	POP  R21
	RET

__MINRES:
	SER  R30
	SER  R31
	LDI  R22,0x7F
	SER  R23
	POP  R21
	RET

__MAXRES:
	SER  R30
	SER  R31
	LDI  R22,0x7F
	LDI  R23,0x7F
	POP  R21
	RET

__MULF12:
	PUSH R21
	RCALL __UNPACK
	CPI  R23,0x80
	BREQ __ZERORES
	CPI  R25,0x80
	BREQ __ZERORES
	EOR  R0,R1
	SEC
	ADC  R23,R25
	BRVC __MULF124
	BRLT __ZERORES
__MULF125:
	TST  R0
	BRMI __MINRES
	RJMP __MAXRES
__MULF124:
	PUSH R0
	PUSH R17
	PUSH R18
	PUSH R19
	PUSH R20
	CLR  R17
	CLR  R18
	CLR  R25
	MUL  R22,R24
	MOVW R20,R0
	MUL  R24,R31
	MOV  R19,R0
	ADD  R20,R1
	ADC  R21,R25
	MUL  R22,R27
	ADD  R19,R0
	ADC  R20,R1
	ADC  R21,R25
	MUL  R24,R30
	RCALL __MULF126
	MUL  R27,R31
	RCALL __MULF126
	MUL  R22,R26
	RCALL __MULF126
	MUL  R27,R30
	RCALL __MULF127
	MUL  R26,R31
	RCALL __MULF127
	MUL  R26,R30
	ADD  R17,R1
	ADC  R18,R25
	ADC  R19,R25
	ADC  R20,R25
	ADC  R21,R25
	MOV  R30,R19
	MOV  R31,R20
	MOV  R22,R21
	MOV  R21,R18
	POP  R20
	POP  R19
	POP  R18
	POP  R17
	POP  R0
	TST  R22
	BRMI __MULF122
	LSL  R21
	ROL  R30
	ROL  R31
	ROL  R22
	RJMP __MULF123
__MULF122:
	INC  R23
	BRVS __MULF125
__MULF123:
	RCALL __ROUND_REPACK
	POP  R21
	RET

__MULF127:
	ADD  R17,R0
	ADC  R18,R1
	ADC  R19,R25
	RJMP __MULF128
__MULF126:
	ADD  R18,R0
	ADC  R19,R1
__MULF128:
	ADC  R20,R25
	ADC  R21,R25
	RET

__DIVF21:
	PUSH R21
	RCALL __UNPACK
	CPI  R23,0x80
	BRNE __DIVF210
	TST  R1
__DIVF211:
	BRPL __DIVF219
	RJMP __MINRES
__DIVF219:
	RJMP __MAXRES
__DIVF210:
	CPI  R25,0x80
	BRNE __DIVF218
__DIVF217:
	RJMP __ZERORES
__DIVF218:
	EOR  R0,R1
	SEC
	SBC  R25,R23
	BRVC __DIVF216
	BRLT __DIVF217
	TST  R0
	RJMP __DIVF211
__DIVF216:
	MOV  R23,R25
	PUSH R17
	PUSH R18
	PUSH R19
	PUSH R20
	CLR  R1
	CLR  R17
	CLR  R18
	CLR  R19
	MOVW R20,R18
	LDI  R25,32
__DIVF212:
	CP   R26,R30
	CPC  R27,R31
	CPC  R24,R22
	CPC  R20,R17
	BRLO __DIVF213
	SUB  R26,R30
	SBC  R27,R31
	SBC  R24,R22
	SBC  R20,R17
	SEC
	RJMP __DIVF214
__DIVF213:
	CLC
__DIVF214:
	ROL  R21
	ROL  R18
	ROL  R19
	ROL  R1
	ROL  R26
	ROL  R27
	ROL  R24
	ROL  R20
	DEC  R25
	BRNE __DIVF212
	MOVW R30,R18
	MOV  R22,R1
	POP  R20
	POP  R19
	POP  R18
	POP  R17
	TST  R22
	BRMI __DIVF215
	LSL  R21
	ROL  R30
	ROL  R31
	ROL  R22
	DEC  R23
	BRVS __DIVF217
__DIVF215:
	RCALL __ROUND_REPACK
	POP  R21
	RET

_delay_ms:
	adiw r26,0
	breq __delay_ms1
__delay_ms0:
	wdr
	__DELAY_USW 0xFA0
	sbiw r26,1
	brne __delay_ms0
__delay_ms1:
	ret

;END OF CODE MARKER
__END_OF_CODE:
